(lp0
(dp1
S'\n'
p2
I0
sS' '
p3
I1
sS'#'
p4
I2
sS'$'
p5
I3
sS"'"
p6
I4
sS'&'
p7
I5
sS'*'
p8
I6
sS'-'
p9
I7
sS'/'
p10
I8
sS'.'
p11
I9
sS'1'
p12
I10
sS'0'
p13
I11
sS'3'
p14
I12
sS'2'
p15
I13
sS'5'
p16
I14
sS'4'
p17
I15
sS'7'
p18
I16
sS'6'
p19
I17
sS'9'
p20
I18
sS'8'
p21
I19
sS'<'
p22
I20
sS'>'
p23
I21
sS'N'
p24
I22
sS'\\'
p25
I23
sS'a'
p26
I24
sS'c'
p27
I25
sS'b'
p28
I26
sS'e'
p29
I27
sS'd'
p30
I28
sS'g'
p31
I29
sS'f'
p32
I30
sS'i'
p33
I31
sS'h'
p34
I32
sS'k'
p35
I33
sS'j'
p36
I34
sS'm'
p37
I35
sS'l'
p38
I36
sS'o'
p39
I37
sS'n'
p40
I38
sS'q'
p41
I39
sS'p'
p42
I40
sS's'
p43
I41
sS'r'
p44
I42
sS'u'
p45
I43
sS't'
p46
I44
sS'w'
p47
I45
sS'v'
p48
I46
sS'y'
p49
I47
sS'x'
p50
I48
sS'z'
p51
I49
sa(dp52
I0
g2
sI1
g3
sI2
g4
sI3
g5
sI4
g6
sI5
g7
sI6
g8
sI7
g9
sI8
g10
sI9
g11
sI10
g12
sI11
g13
sI12
g14
sI13
g15
sI14
g16
sI15
g17
sI16
g18
sI17
g19
sI18
g20
sI19
g21
sI20
g22
sI21
g23
sI22
g24
sI23
g25
sI24
g26
sI25
g27
sI26
g28
sI27
g29
sI28
g30
sI29
g31
sI30
g32
sI31
g33
sI32
g34
sI33
g35
sI34
g36
sI35
g37
sI36
g38
sI37
g39
sI38
g40
sI39
g41
sI40
g42
sI41
g43
sI42
g44
sI43
g45
sI44
g46
sI45
g47
sI46
g48
sI47
g49
sI48
g50
sI49
g51
sa.